; Function Attrs: nounwind uwtable
define ptr @l_Lake_Toml_decNumberSepFn(ptr noundef %0, i32 noundef %1, ptr noundef %2, ptr noundef %3, ptr noundef %4) local_unnamed_addr #1 {
  %.not = icmp eq i32 %1, 95
  br i1 %.not, label %8, label %6

6:                                                ; preds = %5
  %7 = tail call ptr @l_Lake_Toml_decNumberTailAuxFn(ptr noundef %0, i32 noundef %1, ptr noundef %2, ptr noundef %3, ptr noundef %4)
  br label %11

8:                                                ; preds = %5
  %9 = tail call ptr @l_Lean_Parser_ParserState_setPos(ptr noundef %4, ptr noundef %2) #4
  %10 = tail call ptr @l_Lake_Toml_decNumberFn(ptr noundef %0, ptr noundef %3, ptr noundef %9)
  br label %11

11:                                               ; preds = %8, %6
  %.0 = phi ptr [ %7, %6 ], [ %10, %8 ]
  ret ptr %.0
}